; Function Attrs: mustprogress nofree norecurse nosync nounwind willreturn memory(argmem: read) uwtable
define dso_local noundef zeroext i1 @_ZNK4Luau8Location8overlapsERKS0_(ptr nocapture noundef nonnull readonly align 4 dereferenceable(16) %0, ptr nocapture noundef nonnull readonly align 4 dereferenceable(16) %1) local_unnamed_addr #0 align 2 {
  %3 = getelementptr inbounds i8, ptr %0, i64 4
  %4 = load i32, ptr %3, align 4
  %5 = getelementptr inbounds i8, ptr %1, i64 4
  %6 = load i32, ptr %5, align 4
  %7 = icmp eq i32 %4, %6
  %8 = load i32, ptr %0, align 4
  %9 = load i32, ptr %1, align 4
  %10 = icmp eq i32 %8, %9
  %11 = select i1 %7, i1 %10, i1 false
  br i1 %11, label %_ZNK4Luau8PositionleERKS0_.exit.thread, label %_ZNK4Luau8PositionleERKS0_.exit

_ZNK4Luau8PositionleERKS0_.exit:                  ; preds = %2
  %12 = icmp ult i32 %4, %6
  %13 = icmp ult i32 %8, %9
  %.0.i.i = select i1 %10, i1 %12, i1 %13
  br i1 %.0.i.i, label %_ZNK4Luau8PositionleERKS0_.exit.thread, label %23

_ZNK4Luau8PositionleERKS0_.exit.thread:           ; preds = %2, %_ZNK4Luau8PositionleERKS0_.exit
  %14 = getelementptr inbounds i8, ptr %0, i64 8
  %15 = getelementptr inbounds i8, ptr %0, i64 12
  %16 = load i32, ptr %15, align 4
  %17 = icmp eq i32 %16, %6
  %18 = load i32, ptr %14, align 4
  %19 = icmp eq i32 %18, %9
  %20 = select i1 %17, i1 %19, i1 false
  br i1 %20, label %_ZNK4Luau8PositionleERKS0_.exit15, label %_ZNK4Luau8PositiongeERKS0_.exit

_ZNK4Luau8PositiongeERKS0_.exit:                  ; preds = %_ZNK4Luau8PositionleERKS0_.exit.thread
  %21 = icmp ugt i32 %16, %6
  %22 = icmp ugt i32 %18, %9
  %.0.i.i7 = select i1 %19, i1 %21, i1 %22
  br i1 %.0.i.i7, label %_ZNK4Luau8PositionleERKS0_.exit15, label %23

23:                                               ; preds = %_ZNK4Luau8PositiongeERKS0_.exit, %_ZNK4Luau8PositionleERKS0_.exit
  %24 = getelementptr inbounds i8, ptr %1, i64 8
  %25 = getelementptr inbounds i8, ptr %1, i64 12
  %26 = load i32, ptr %25, align 4
  %27 = icmp eq i32 %4, %26
  %28 = load i32, ptr %24, align 4
  %29 = icmp eq i32 %8, %28
  %30 = select i1 %27, i1 %29, i1 false
  br i1 %30, label %_ZNK4Luau8PositionleERKS0_.exit9.thread, label %_ZNK4Luau8PositionleERKS0_.exit9

_ZNK4Luau8PositionleERKS0_.exit9:                 ; preds = %23
  %31 = icmp ult i32 %4, %26
  %32 = icmp ult i32 %8, %28
  %.0.i.i8 = select i1 %29, i1 %31, i1 %32
  br i1 %.0.i.i8, label %_ZNK4Luau8PositionleERKS0_.exit9.thread, label %42

_ZNK4Luau8PositionleERKS0_.exit9.thread:          ; preds = %23, %_ZNK4Luau8PositionleERKS0_.exit9
  %33 = getelementptr inbounds i8, ptr %0, i64 8
  %34 = getelementptr inbounds i8, ptr %0, i64 12
  %35 = load i32, ptr %34, align 4
  %36 = icmp eq i32 %35, %26
  %37 = load i32, ptr %33, align 4
  %38 = icmp eq i32 %37, %28
  %39 = select i1 %36, i1 %38, i1 false
  br i1 %39, label %_ZNK4Luau8PositionleERKS0_.exit15, label %_ZNK4Luau8PositiongeERKS0_.exit11

_ZNK4Luau8PositiongeERKS0_.exit11:                ; preds = %_ZNK4Luau8PositionleERKS0_.exit9.thread
  %40 = icmp ugt i32 %35, %26
  %41 = icmp ugt i32 %37, %28
  %.0.i.i10 = select i1 %38, i1 %40, i1 %41
  br i1 %.0.i.i10, label %_ZNK4Luau8PositionleERKS0_.exit15, label %42

42:                                               ; preds = %_ZNK4Luau8PositiongeERKS0_.exit11, %_ZNK4Luau8PositionleERKS0_.exit9
  br i1 %11, label %_ZNK4Luau8PositiongeERKS0_.exit13.thread, label %_ZNK4Luau8PositiongeERKS0_.exit13

_ZNK4Luau8PositiongeERKS0_.exit13:                ; preds = %42
  %43 = icmp ugt i32 %4, %6
  %44 = icmp ugt i32 %8, %9
  %.0.i.i12 = select i1 %10, i1 %43, i1 %44
  br i1 %.0.i.i12, label %_ZNK4Luau8PositiongeERKS0_.exit13.thread, label %_ZNK4Luau8PositionleERKS0_.exit15

_ZNK4Luau8PositiongeERKS0_.exit13.thread:         ; preds = %42, %_ZNK4Luau8PositiongeERKS0_.exit13
  %45 = getelementptr inbounds i8, ptr %0, i64 8
  %46 = getelementptr inbounds i8, ptr %0, i64 12
  %47 = load i32, ptr %46, align 4
  %48 = icmp eq i32 %47, %26
  %49 = load i32, ptr %45, align 4
  %50 = icmp eq i32 %49, %28
  %51 = select i1 %48, i1 %50, i1 false
  br i1 %51, label %_ZNK4Luau8PositionleERKS0_.exit15, label %52

52:                                               ; preds = %_ZNK4Luau8PositiongeERKS0_.exit13.thread
  %53 = icmp ult i32 %47, %26
  %54 = icmp ult i32 %49, %28
  %.0.i.i14 = select i1 %50, i1 %53, i1 %54
  br label %_ZNK4Luau8PositionleERKS0_.exit15

_ZNK4Luau8PositionleERKS0_.exit15:                ; preds = %_ZNK4Luau8PositionleERKS0_.exit9.thread, %_ZNK4Luau8PositionleERKS0_.exit.thread, %52, %_ZNK4Luau8PositiongeERKS0_.exit13.thread, %_ZNK4Luau8PositiongeERKS0_.exit13, %_ZNK4Luau8PositiongeERKS0_.exit11, %_ZNK4Luau8PositiongeERKS0_.exit
  %55 = phi i1 [ true, %_ZNK4Luau8PositiongeERKS0_.exit11 ], [ true, %_ZNK4Luau8PositiongeERKS0_.exit ], [ false, %_ZNK4Luau8PositiongeERKS0_.exit13 ], [ true, %_ZNK4Luau8PositiongeERKS0_.exit13.thread ], [ %.0.i.i14, %52 ], [ true, %_ZNK4Luau8PositionleERKS0_.exit.thread ], [ true, %_ZNK4Luau8PositionleERKS0_.exit9.thread ]
  ret i1 %55
}